; ModuleID = '60/1979.c'
source_filename = "60/1979.c"
target datalayout = "e-m:e-p270:32:32-p271:32:32-p272:64:64-i64:64-f80:128-n8:16:32:64-S128"
target triple = "x86_64-pc-linux-gnu"

@.str = private unnamed_addr constant [3 x i8] c"%d\00", align 1
@.str.1 = private unnamed_addr constant [7 x i8] c"%d %d\0A\00", align 1
@.str.2 = private unnamed_addr constant [6 x i8] c"empty\00", align 1

; Function Attrs: noinline nounwind uwtable
define dso_local i32 @is(i32 %0) #0 {
  %2 = alloca i32, align 4
  %3 = alloca i32, align 4
  %4 = alloca i32, align 4
  %5 = alloca i32, align 4
  store i32 %0, i32* %3, align 4
  %6 = load i32, i32* %3, align 4
  %7 = sitofp i32 %6 to double
  %8 = call double @sqrt(double %7) #3
  %9 = fptosi double %8 to i32
  store i32 %9, i32* %4, align 4
  store i32 2, i32* %5, align 4
  br label %10

10:                                               ; preds = %21, %1
  %11 = load i32, i32* %5, align 4
  %12 = load i32, i32* %4, align 4
  %13 = icmp sle i32 %11, %12
  br i1 %13, label %14, label %24

14:                                               ; preds = %10
  %15 = load i32, i32* %3, align 4
  %16 = load i32, i32* %5, align 4
  %17 = srem i32 %15, %16
  %18 = icmp eq i32 %17, 0
  br i1 %18, label %19, label %20

19:                                               ; preds = %14
  store i32 0, i32* %2, align 4
  br label %25

20:                                               ; preds = %14
  br label %21

21:                                               ; preds = %20
  %22 = load i32, i32* %5, align 4
  %23 = add nsw i32 %22, 1
  store i32 %23, i32* %5, align 4
  br label %10

24:                                               ; preds = %10
  store i32 1, i32* %2, align 4
  br label %25

25:                                               ; preds = %24, %19
  %26 = load i32, i32* %2, align 4
  ret i32 %26
}

; Function Attrs: nounwind
declare dso_local double @sqrt(double) #1

; Function Attrs: noinline nounwind uwtable
define dso_local i32 @main() #0 {
  %1 = alloca i32, align 4
  %2 = alloca i32, align 4
  %3 = alloca i32, align 4
  %4 = alloca i32, align 4
  store i32 0, i32* %1, align 4
  store i32 0, i32* %3, align 4
  %5 = call i32 (i8*, ...) @__isoc99_scanf(i8* getelementptr inbounds ([3 x i8], [3 x i8]* @.str, i64 0, i64 0), i32* %2)
  store i32 3, i32* %4, align 4
  br label %6

6:                                                ; preds = %28, %0
  %7 = load i32, i32* %4, align 4
  %8 = load i32, i32* %2, align 4
  %9 = sub nsw i32 %8, 1
  %10 = icmp slt i32 %7, %9
  br i1 %10, label %11, label %31

11:                                               ; preds = %6
  %12 = load i32, i32* %4, align 4
  %13 = call i32 @is(i32 %12)
  %14 = icmp eq i32 %13, 1
  br i1 %14, label %15, label %27

15:                                               ; preds = %11
  %16 = load i32, i32* %4, align 4
  %17 = add nsw i32 %16, 2
  %18 = call i32 @is(i32 %17)
  %19 = icmp eq i32 %18, 1
  br i1 %19, label %20, label %27

20:                                               ; preds = %15
  %21 = load i32, i32* %4, align 4
  %22 = load i32, i32* %4, align 4
  %23 = add nsw i32 %22, 2
  %24 = call i32 (i8*, ...) @printf(i8* getelementptr inbounds ([7 x i8], [7 x i8]* @.str.1, i64 0, i64 0), i32 %21, i32 %23)
  %25 = load i32, i32* %3, align 4
  %26 = add nsw i32 %25, 1
  store i32 %26, i32* %3, align 4
  br label %27

27:                                               ; preds = %20, %15, %11
  br label %28

28:                                               ; preds = %27
  %29 = load i32, i32* %4, align 4
  %30 = add nsw i32 %29, 1
  store i32 %30, i32* %4, align 4
  br label %6

31:                                               ; preds = %6
  %32 = load i32, i32* %3, align 4
  %33 = icmp eq i32 %32, 0
  br i1 %33, label %34, label %36

34:                                               ; preds = %31
  %35 = call i32 (i8*, ...) @printf(i8* getelementptr inbounds ([6 x i8], [6 x i8]* @.str.2, i64 0, i64 0))
  br label %36

36:                                               ; preds = %34, %31
  %37 = load i32, i32* %1, align 4
  ret i32 %37
}

declare dso_local i32 @__isoc99_scanf(i8*, ...) #2

declare dso_local i32 @printf(i8*, ...) #2


!llvm.module.flags = !{!0}
!llvm.ident = !{!1}

!0 = !{i32 1, !"wchar_size", i32 4}
!1 = !{!"clang version 10.0.0-4ubuntu1 "}
